; Function Attrs: mustprogress uwtable
define void @_ZN8QuantLib17ForwardValueQuote6updateEv(ptr noundef nonnull align 8 dereferenceable(88) %this) unnamed_addr #6 align 2 {
entry:
  %vtable = load ptr, ptr %this, align 8, !tbaa !28
  %vbase.offset.ptr = getelementptr i8, ptr %vtable, i64 -24
  %vbase.offset = load i64, ptr %vbase.offset.ptr, align 8
  %add.ptr = getelementptr inbounds i8, ptr %this, i64 %vbase.offset
  tail call void @_ZN8QuantLib10Observable15notifyObserversEv(ptr noundef nonnull align 8 dereferenceable(56) %add.ptr)
  ret void
}